target datalayout = "e-m:e-p270:32:32-p271:32:32-p272:64:64-i64:64-i128:128-f80:128-n8:16:32:64-S128"
target triple = "x86_64-pc-linux-gnu"

%struct.v3_ext_method = type { i32, i32, ptr, ptr, ptr, ptr, ptr, ptr, ptr, ptr, ptr, ptr, ptr, ptr }
%struct.BIT_STRING_BITNAME_st = type { i32, ptr, ptr }
%struct.CONF_VALUE = type { ptr, ptr, ptr }

@.str = private unnamed_addr constant [34 x i8] c"../openssl/crypto/x509/v3_bitst.c\00", align 1
@__func__.v2i_ASN1_BIT_STRING = private unnamed_addr constant [20 x i8] c"v2i_ASN1_BIT_STRING\00", align 1
@.str.1 = private unnamed_addr constant [3 x i8] c"%s\00", align 1

; Function Attrs: inlinehint nounwind uwtable
define internal ptr @ossl_check_const_CONF_VALUE_sk_type(ptr noundef %0) #3 {
  %2 = alloca ptr, align 8
  store ptr %0, ptr %2, align 8, !tbaa !10
  %3 = load ptr, ptr %2, align 8, !tbaa !10
  ret ptr %3
}

; Function Attrs: nounwind uwtable
define ptr @v2i_ASN1_BIT_STRING(ptr noundef %0, ptr noundef %1, ptr noundef %2) #1 {
  %4 = alloca ptr, align 8
  %5 = alloca ptr, align 8
  %6 = alloca ptr, align 8
  %7 = alloca ptr, align 8
  %8 = alloca ptr, align 8
  %9 = alloca ptr, align 8
  %10 = alloca i32, align 4
  %11 = alloca ptr, align 8
  %12 = alloca i32, align 4
  store ptr %0, ptr %5, align 8, !tbaa !3
  store ptr %1, ptr %6, align 8, !tbaa !23
  store ptr %2, ptr %7, align 8, !tbaa !10
  call void @llvm.lifetime.start.p0(i64 8, ptr %8) #5
  call void @llvm.lifetime.start.p0(i64 8, ptr %9) #5
  call void @llvm.lifetime.start.p0(i64 4, ptr %10) #5
  call void @llvm.lifetime.start.p0(i64 8, ptr %11) #5
  %13 = call ptr @ASN1_BIT_STRING_new()
  store ptr %13, ptr %9, align 8, !tbaa !8
  %14 = icmp eq ptr %13, null
  br i1 %14, label %15, label %16

15:                                               ; preds = %3
  call void @ERR_new()
  call void @ERR_set_debug(ptr noundef @.str, i32 noundef 67, ptr noundef @__func__.v2i_ASN1_BIT_STRING)
  call void (i32, i32, ptr, ...) @ERR_set_error(i32 noundef 34, i32 noundef 524301, ptr noundef null)
  store ptr null, ptr %4, align 8
  store i32 1, ptr %12, align 4
  br label %84

16:                                               ; preds = %3
  store i32 0, ptr %10, align 4, !tbaa !25
  br label %17

17:                                               ; preds = %79, %16
  %18 = load i32, ptr %10, align 4, !tbaa !25
  %19 = load ptr, ptr %7, align 8, !tbaa !10
  %20 = call ptr @ossl_check_const_CONF_VALUE_sk_type(ptr noundef %19)
  %21 = call i32 @OPENSSL_sk_num(ptr noundef %20)
  %22 = icmp slt i32 %18, %21
  br i1 %22, label %23, label %82

23:                                               ; preds = %17
  %24 = load ptr, ptr %7, align 8, !tbaa !10
  %25 = call ptr @ossl_check_const_CONF_VALUE_sk_type(ptr noundef %24)
  %26 = load i32, ptr %10, align 4, !tbaa !25
  %27 = call ptr @OPENSSL_sk_value(ptr noundef %25, i32 noundef %26)
  store ptr %27, ptr %8, align 8, !tbaa !26
  %28 = load ptr, ptr %5, align 8, !tbaa !3
  %29 = getelementptr inbounds nuw %struct.v3_ext_method, ptr %28, i32 0, i32 13
  %30 = load ptr, ptr %29, align 8, !tbaa !12
  store ptr %30, ptr %11, align 8, !tbaa !15
  br label %31

31:                                               ; preds = %65, %23
  %32 = load ptr, ptr %11, align 8, !tbaa !15
  %33 = getelementptr inbounds nuw %struct.BIT_STRING_BITNAME_st, ptr %32, i32 0, i32 1
  %34 = load ptr, ptr %33, align 8, !tbaa !17
  %35 = icmp ne ptr %34, null
  br i1 %35, label %36, label %68

36:                                               ; preds = %31
  %37 = load ptr, ptr %11, align 8, !tbaa !15
  %38 = getelementptr inbounds nuw %struct.BIT_STRING_BITNAME_st, ptr %37, i32 0, i32 2
  %39 = load ptr, ptr %38, align 8, !tbaa !27
  %40 = load ptr, ptr %8, align 8, !tbaa !26
  %41 = getelementptr inbounds nuw %struct.CONF_VALUE, ptr %40, i32 0, i32 1
  %42 = load ptr, ptr %41, align 8, !tbaa !28
  %43 = call i32 @strcmp(ptr noundef %39, ptr noundef %42) #6
  %44 = icmp eq i32 %43, 0
  br i1 %44, label %54, label %45

45:                                               ; preds = %36
  %46 = load ptr, ptr %11, align 8, !tbaa !15
  %47 = getelementptr inbounds nuw %struct.BIT_STRING_BITNAME_st, ptr %46, i32 0, i32 1
  %48 = load ptr, ptr %47, align 8, !tbaa !17
  %49 = load ptr, ptr %8, align 8, !tbaa !26
  %50 = getelementptr inbounds nuw %struct.CONF_VALUE, ptr %49, i32 0, i32 1
  %51 = load ptr, ptr %50, align 8, !tbaa !28
  %52 = call i32 @strcmp(ptr noundef %48, ptr noundef %51) #6
  %53 = icmp eq i32 %52, 0
  br i1 %53, label %54, label %64

54:                                               ; preds = %45, %36
  %55 = load ptr, ptr %9, align 8, !tbaa !8
  %56 = load ptr, ptr %11, align 8, !tbaa !15
  %57 = getelementptr inbounds nuw %struct.BIT_STRING_BITNAME_st, ptr %56, i32 0, i32 0
  %58 = load i32, ptr %57, align 8, !tbaa !20
  %59 = call i32 @ASN1_BIT_STRING_set_bit(ptr noundef %55, i32 noundef %58, i32 noundef 1)
  %60 = icmp ne i32 %59, 0
  br i1 %60, label %63, label %61

61:                                               ; preds = %54
  call void @ERR_new()
  call void @ERR_set_debug(ptr noundef @.str, i32 noundef 76, ptr noundef @__func__.v2i_ASN1_BIT_STRING)
  call void (i32, i32, ptr, ...) @ERR_set_error(i32 noundef 34, i32 noundef 524301, ptr noundef null)
  %62 = load ptr, ptr %9, align 8, !tbaa !8
  call void @ASN1_BIT_STRING_free(ptr noundef %62)
  store ptr null, ptr %4, align 8
  store i32 1, ptr %12, align 4
  br label %84

63:                                               ; preds = %54
  br label %68

64:                                               ; preds = %45
  br label %65

65:                                               ; preds = %64
  %66 = load ptr, ptr %11, align 8, !tbaa !15
  %67 = getelementptr inbounds nuw %struct.BIT_STRING_BITNAME_st, ptr %66, i32 1
  store ptr %67, ptr %11, align 8, !tbaa !15
  br label %31, !llvm.loop !30

68:                                               ; preds = %63, %31
  %69 = load ptr, ptr %11, align 8, !tbaa !15
  %70 = getelementptr inbounds nuw %struct.BIT_STRING_BITNAME_st, ptr %69, i32 0, i32 1
  %71 = load ptr, ptr %70, align 8, !tbaa !17
  %72 = icmp ne ptr %71, null
  br i1 %72, label %78, label %73

73:                                               ; preds = %68
  call void @ERR_new()
  call void @ERR_set_debug(ptr noundef @.str, i32 noundef 84, ptr noundef @__func__.v2i_ASN1_BIT_STRING)
  %74 = load ptr, ptr %8, align 8, !tbaa !26
  %75 = getelementptr inbounds nuw %struct.CONF_VALUE, ptr %74, i32 0, i32 1
  %76 = load ptr, ptr %75, align 8, !tbaa !28
  call void (i32, i32, ptr, ...) @ERR_set_error(i32 noundef 34, i32 noundef 111, ptr noundef @.str.1, ptr noundef %76)
  %77 = load ptr, ptr %9, align 8, !tbaa !8
  call void @ASN1_BIT_STRING_free(ptr noundef %77)
  store ptr null, ptr %4, align 8
  store i32 1, ptr %12, align 4
  br label %84

78:                                               ; preds = %68
  br label %79

79:                                               ; preds = %78
  %80 = load i32, ptr %10, align 4, !tbaa !25
  %81 = add nsw i32 %80, 1
  store i32 %81, ptr %10, align 4, !tbaa !25
  br label %17, !llvm.loop !31

82:                                               ; preds = %17
  %83 = load ptr, ptr %9, align 8, !tbaa !8
  store ptr %83, ptr %4, align 8
  store i32 1, ptr %12, align 4
  br label %84

84:                                               ; preds = %82, %73, %61, %15
  call void @llvm.lifetime.end.p0(i64 8, ptr %11) #5
  call void @llvm.lifetime.end.p0(i64 4, ptr %10) #5
  call void @llvm.lifetime.end.p0(i64 8, ptr %9) #5
  call void @llvm.lifetime.end.p0(i64 8, ptr %8) #5
  %85 = load ptr, ptr %4, align 8
  ret ptr %85
}