; Function Attrs: nounwind uwtable
define ptr @v2i_ASN1_BIT_STRING(ptr noundef readonly captures(none) %0, ptr readnone captures(none) %1, ptr noundef %2) #1 {
  %4 = tail call ptr @ASN1_BIT_STRING_new() #3
  %5 = icmp eq ptr %4, null
  br i1 %5, label %9, label %.preheader

.preheader:                                       ; preds = %3
  %6 = tail call i32 @OPENSSL_sk_num(ptr noundef %2) #3
  %7 = icmp sgt i32 %6, 0
  br i1 %7, label %.lr.ph36, label %.loopexit

.lr.ph36:                                         ; preds = %.preheader
  %8 = getelementptr inbounds nuw i8, ptr %0, i64 96
  br label %14

9:                                                ; preds = %3
  tail call void @ERR_new() #3
  tail call void @ERR_set_debug(ptr noundef nonnull @.str, i32 noundef 67, ptr noundef nonnull @__func__.v2i_ASN1_BIT_STRING) #3
  tail call void (i32, i32, ptr, ...) @ERR_set_error(i32 noundef 34, i32 noundef 524301, ptr noundef null) #3
  br label %.loopexit

10:                                               ; preds = %38
  %11 = add nuw nsw i32 %.01935, 1
  %12 = tail call i32 @OPENSSL_sk_num(ptr noundef %2) #3
  %13 = icmp slt i32 %11, %12
  br i1 %13, label %14, label %.loopexit, !llvm.loop !17

14:                                               ; preds = %.lr.ph36, %10
  %.01935 = phi i32 [ 0, %.lr.ph36 ], [ %11, %10 ]
  %15 = tail call ptr @OPENSSL_sk_value(ptr noundef %2, i32 noundef %.01935) #3
  %16 = load ptr, ptr %8, align 8, !tbaa !8
  %17 = getelementptr inbounds nuw i8, ptr %16, i64 8
  %18 = load ptr, ptr %17, align 8, !tbaa !11
  %.not31 = icmp eq ptr %18, null
  br i1 %.not31, label %.thread, label %.lr.ph

.lr.ph:                                           ; preds = %14
  %19 = getelementptr inbounds nuw i8, ptr %15, i64 8
  %20 = load ptr, ptr %19, align 8, !tbaa !18
  br label %21

21:                                               ; preds = %.lr.ph, %34
  %22 = phi ptr [ %18, %.lr.ph ], [ %37, %34 ]
  %.032 = phi ptr [ %16, %.lr.ph ], [ %35, %34 ]
  %23 = getelementptr inbounds nuw i8, ptr %.032, i64 16
  %24 = load ptr, ptr %23, align 8, !tbaa !20
  %25 = tail call i32 @strcmp(ptr noundef nonnull dereferenceable(1) %24, ptr noundef nonnull dereferenceable(1) %20) #4
  %26 = icmp eq i32 %25, 0
  br i1 %26, label %30, label %27

27:                                               ; preds = %21
  %28 = tail call i32 @strcmp(ptr noundef nonnull dereferenceable(1) %22, ptr noundef nonnull dereferenceable(1) %20) #4
  %29 = icmp eq i32 %28, 0
  br i1 %29, label %30, label %34

30:                                               ; preds = %27, %21
  %31 = load i32, ptr %.032, align 8, !tbaa !14
  %32 = tail call i32 @ASN1_BIT_STRING_set_bit(ptr noundef nonnull %4, i32 noundef %31, i32 noundef 1) #3
  %.not23 = icmp eq i32 %32, 0
  br i1 %.not23, label %33, label %38

33:                                               ; preds = %30
  tail call void @ERR_new() #3
  tail call void @ERR_set_debug(ptr noundef nonnull @.str, i32 noundef 76, ptr noundef nonnull @__func__.v2i_ASN1_BIT_STRING) #3
  tail call void (i32, i32, ptr, ...) @ERR_set_error(i32 noundef 34, i32 noundef 524301, ptr noundef null) #3
  tail call void @ASN1_BIT_STRING_free(ptr noundef nonnull %4) #3
  br label %.loopexit

34:                                               ; preds = %27
  %35 = getelementptr inbounds nuw i8, ptr %.032, i64 24
  %36 = getelementptr inbounds nuw i8, ptr %.032, i64 32
  %37 = load ptr, ptr %36, align 8, !tbaa !11
  %.not = icmp eq ptr %37, null
  br i1 %.not, label %.thread, label %21, !llvm.loop !21

38:                                               ; preds = %30
  %39 = getelementptr inbounds nuw i8, ptr %.032, i64 8
  %.pr = load ptr, ptr %39, align 8, !tbaa !11
  %.not24 = icmp eq ptr %.pr, null
  br i1 %.not24, label %.thread, label %10

.thread:                                          ; preds = %38, %14, %34
  tail call void @ERR_new() #3
  tail call void @ERR_set_debug(ptr noundef nonnull @.str, i32 noundef 84, ptr noundef nonnull @__func__.v2i_ASN1_BIT_STRING) #3
  %40 = getelementptr inbounds nuw i8, ptr %15, i64 8
  %41 = load ptr, ptr %40, align 8, !tbaa !18
  tail call void (i32, i32, ptr, ...) @ERR_set_error(i32 noundef 34, i32 noundef 111, ptr noundef nonnull @.str.1, ptr noundef %41) #3
  tail call void @ASN1_BIT_STRING_free(ptr noundef nonnull %4) #3
  br label %.loopexit

.loopexit:                                        ; preds = %10, %.preheader, %.thread, %33, %9
  %.020 = phi ptr [ null, %9 ], [ null, %.thread ], [ null, %33 ], [ %4, %.preheader ], [ %4, %10 ]
  ret ptr %.020
}